; Function Attrs: mustprogress nounwind uwtable
define internal noundef zeroext i1 @"_ZNSt17_Function_handlerIFvRN4llvm16MachineIRBuilderEEZNS0_14CombinerHelper16matchAddOverflowERNS0_12MachineInstrERSt8functionIS3_EE3$_6E10_M_managerERSt9_Any_dataRKSC_St18_Manager_operation"(ptr nocapture noundef nonnull align 8 dereferenceable(16) %0, ptr nocapture noundef nonnull readonly align 8 dereferenceable(16) %1, i32 noundef %2) #0 align 2 {
  %.val = load ptr, ptr %1, align 8
  switch i32 %2, label %"_ZNSt14_Function_base13_Base_managerIZN4llvm14CombinerHelper16matchAddOverflowERNS1_12MachineInstrERSt8functionIFvRNS1_16MachineIRBuilderEEEE3$_6E10_M_managerERSt9_Any_dataRKSD_St18_Manager_operation.exit" [
    i32 1, label %4
    i32 0, label %5
    i32 3, label %20
    i32 2, label %6
  ]

4:                                                ; preds = %3
  store ptr %.val, ptr %0, align 8
  br label %"_ZNSt14_Function_base13_Base_managerIZN4llvm14CombinerHelper16matchAddOverflowERNS1_12MachineInstrERSt8functionIFvRNS1_16MachineIRBuilderEEEE3$_6E10_M_managerERSt9_Any_dataRKSD_St18_Manager_operation.exit"

5:                                                ; preds = %3
  store ptr null, ptr %0, align 8
  br label %"_ZNSt14_Function_base13_Base_managerIZN4llvm14CombinerHelper16matchAddOverflowERNS1_12MachineInstrERSt8functionIFvRNS1_16MachineIRBuilderEEEE3$_6E10_M_managerERSt9_Any_dataRKSD_St18_Manager_operation.exit"

6:                                                ; preds = %3
  %7 = tail call noalias noundef nonnull dereferenceable(40) ptr @_Znwm(i64 noundef 40) #28
  %8 = load i64, ptr %.val, align 8
  store i64 %8, ptr %7, align 8
  %9 = getelementptr inbounds nuw i8, ptr %7, i64 8
  %10 = getelementptr inbounds nuw i8, ptr %.val, i64 8
  %11 = getelementptr inbounds i8, ptr %7, i64 16
  %12 = getelementptr inbounds i8, ptr %.val, i64 16
  %13 = load i32, ptr %12, align 8
  store i32 %13, ptr %11, align 8
  %14 = icmp ult i32 %13, 65
  br i1 %14, label %15, label %17

15:                                               ; preds = %6
  %16 = load i64, ptr %10, align 8
  store i64 %16, ptr %9, align 8
  br label %"_ZNSt14_Function_base13_Base_managerIZN4llvm14CombinerHelper16matchAddOverflowERNS1_12MachineInstrERSt8functionIFvRNS1_16MachineIRBuilderEEEE3$_6E15_M_init_functorIRKSB_EEvRSt9_Any_dataOT_.exit.i"

17:                                               ; preds = %6
  tail call void @_ZN4llvm5APInt12initSlowCaseERKS0_(ptr noundef nonnull align 8 dereferenceable(12) %9, ptr noundef nonnull align 8 dereferenceable(12) %10) #27
  br label %"_ZNSt14_Function_base13_Base_managerIZN4llvm14CombinerHelper16matchAddOverflowERNS1_12MachineInstrERSt8functionIFvRNS1_16MachineIRBuilderEEEE3$_6E15_M_init_functorIRKSB_EEvRSt9_Any_dataOT_.exit.i"

"_ZNSt14_Function_base13_Base_managerIZN4llvm14CombinerHelper16matchAddOverflowERNS1_12MachineInstrERSt8functionIFvRNS1_16MachineIRBuilderEEEE3$_6E15_M_init_functorIRKSB_EEvRSt9_Any_dataOT_.exit.i": ; preds = %17, %15
  %18 = getelementptr inbounds nuw i8, ptr %7, i64 24
  %19 = getelementptr inbounds nuw i8, ptr %.val, i64 24
  tail call void @llvm.memcpy.p0.p0.i64(ptr noundef nonnull align 8 dereferenceable(16) %18, ptr noundef nonnull align 8 dereferenceable(16) %19, i64 16, i1 false)
  store ptr %7, ptr %0, align 8
  br label %"_ZNSt14_Function_base13_Base_managerIZN4llvm14CombinerHelper16matchAddOverflowERNS1_12MachineInstrERSt8functionIFvRNS1_16MachineIRBuilderEEEE3$_6E10_M_managerERSt9_Any_dataRKSD_St18_Manager_operation.exit"

20:                                               ; preds = %3
  %.val6.i = load ptr, ptr %0, align 8
  %21 = icmp eq ptr %.val6.i, null
  br i1 %21, label %"_ZNSt14_Function_base13_Base_managerIZN4llvm14CombinerHelper16matchAddOverflowERNS1_12MachineInstrERSt8functionIFvRNS1_16MachineIRBuilderEEEE3$_6E10_M_managerERSt9_Any_dataRKSD_St18_Manager_operation.exit", label %22

22:                                               ; preds = %20
  %23 = getelementptr i8, ptr %.val6.i, i64 8
  %.val.i.i = load ptr, ptr %23, align 8
  %24 = getelementptr i8, ptr %.val6.i, i64 16
  %.val1.i.i = load i32, ptr %24, align 8
  %25 = icmp ult i32 %.val1.i.i, 65
  %26 = icmp eq ptr %.val.i.i, null
  %or.cond.i.i.i = select i1 %25, i1 true, i1 %26
  br i1 %or.cond.i.i.i, label %"_ZZN4llvm14CombinerHelper16matchAddOverflowERNS_12MachineInstrERSt8functionIFvRNS_16MachineIRBuilderEEEEN3$_6D2Ev.exit.i.i", label %27

27:                                               ; preds = %22
  tail call void @_ZdaPv(ptr noundef nonnull %.val.i.i) #31
  br label %"_ZZN4llvm14CombinerHelper16matchAddOverflowERNS_12MachineInstrERSt8functionIFvRNS_16MachineIRBuilderEEEEN3$_6D2Ev.exit.i.i"

"_ZZN4llvm14CombinerHelper16matchAddOverflowERNS_12MachineInstrERSt8functionIFvRNS_16MachineIRBuilderEEEEN3$_6D2Ev.exit.i.i": ; preds = %27, %22
  tail call void @_ZdlPvm(ptr noundef nonnull %.val6.i, i64 noundef 40) #31
  br label %"_ZNSt14_Function_base13_Base_managerIZN4llvm14CombinerHelper16matchAddOverflowERNS1_12MachineInstrERSt8functionIFvRNS1_16MachineIRBuilderEEEE3$_6E10_M_managerERSt9_Any_dataRKSD_St18_Manager_operation.exit"

"_ZNSt14_Function_base13_Base_managerIZN4llvm14CombinerHelper16matchAddOverflowERNS1_12MachineInstrERSt8functionIFvRNS1_16MachineIRBuilderEEEE3$_6E10_M_managerERSt9_Any_dataRKSD_St18_Manager_operation.exit": ; preds = %3, %"_ZZN4llvm14CombinerHelper16matchAddOverflowERNS_12MachineInstrERSt8functionIFvRNS_16MachineIRBuilderEEEEN3$_6D2Ev.exit.i.i", %20, %"_ZNSt14_Function_base13_Base_managerIZN4llvm14CombinerHelper16matchAddOverflowERNS1_12MachineInstrERSt8functionIFvRNS1_16MachineIRBuilderEEEE3$_6E15_M_init_functorIRKSB_EEvRSt9_Any_dataOT_.exit.i", %5, %4
  ret i1 false
}